; Function Attrs: mustprogress nofree norecurse nounwind memory(argmem: readwrite, inaccessiblemem: readwrite) uwtable
define internal void @_ZZN16DefNewGeneration26remove_forwarding_pointersEvEN22ResetForwardedMarkWord9do_objectEP7oopDesc(ptr nocapture nonnull readnone align 8 %0, ptr noundef %1) unnamed_addr #13 align 2 {
  %3 = load volatile i64, ptr %1, align 8
  %4 = and i64 %3, 3
  %5 = icmp eq i64 %4, 3
  br i1 %5, label %6, label %7

6:                                                ; preds = %2
  store volatile i64 1, ptr %1, align 8
  br label %7

7:                                                ; preds = %6, %2
  ret void
}